target datalayout = "e-m:e-p270:32:32-p271:32:32-p272:64:64-i64:64-i128:128-f80:128-n8:16:32:64-S128"
target triple = "x86_64-pc-linux-gnu"

%struct.job_step_pids_t = type { ptr, ptr, i32 }

; Function Attrs: nounwind uwtable
define internal void @_pack_job_step_pids(ptr noundef %0, ptr noundef %1, i16 noundef zeroext %2) #0 {
  %4 = alloca ptr, align 8
  %5 = alloca ptr, align 8
  %6 = alloca i16, align 2
  %7 = alloca i32, align 4
  store ptr %0, ptr %4, align 8
  store ptr %1, ptr %5, align 8
  store i16 %2, ptr %6, align 2
  %8 = load ptr, ptr %4, align 8
  %9 = icmp ne ptr %8, null
  br i1 %9, label %15, label %10

10:                                               ; preds = %3
  br label %11

11:                                               ; preds = %10
  %12 = load ptr, ptr %5, align 8
  call void @packmem(ptr noundef null, i32 noundef 0, ptr noundef %12)
  br label %13

13:                                               ; preds = %11
  %14 = load ptr, ptr %5, align 8
  call void @pack32(i32 noundef 0, ptr noundef %14)
  br label %42

15:                                               ; preds = %3
  br label %16

16:                                               ; preds = %15
  call void @llvm.lifetime.start.p0(i64 4, ptr %7) #6
  store i32 0, ptr %7, align 4
  %17 = load ptr, ptr %4, align 8
  %18 = getelementptr inbounds nuw %struct.job_step_pids_t, ptr %17, i32 0, i32 0
  %19 = load ptr, ptr %18, align 8
  %20 = icmp ne ptr %19, null
  br i1 %20, label %21, label %28

21:                                               ; preds = %16
  %22 = load ptr, ptr %4, align 8
  %23 = getelementptr inbounds nuw %struct.job_step_pids_t, ptr %22, i32 0, i32 0
  %24 = load ptr, ptr %23, align 8
  %25 = call i64 @strlen(ptr noundef %24) #7
  %26 = trunc i64 %25 to i32
  %27 = add i32 %26, 1
  store i32 %27, ptr %7, align 4
  br label %28

28:                                               ; preds = %21, %16
  %29 = load ptr, ptr %4, align 8
  %30 = getelementptr inbounds nuw %struct.job_step_pids_t, ptr %29, i32 0, i32 0
  %31 = load ptr, ptr %30, align 8
  %32 = load i32, ptr %7, align 4
  %33 = load ptr, ptr %5, align 8
  call void @packmem(ptr noundef %31, i32 noundef %32, ptr noundef %33)
  call void @llvm.lifetime.end.p0(i64 4, ptr %7) #6
  br label %34

34:                                               ; preds = %28
  %35 = load ptr, ptr %4, align 8
  %36 = getelementptr inbounds nuw %struct.job_step_pids_t, ptr %35, i32 0, i32 1
  %37 = load ptr, ptr %36, align 8
  %38 = load ptr, ptr %4, align 8
  %39 = getelementptr inbounds nuw %struct.job_step_pids_t, ptr %38, i32 0, i32 2
  %40 = load i32, ptr %39, align 8
  %41 = load ptr, ptr %5, align 8
  call void @pack32_array(ptr noundef %37, i32 noundef %40, ptr noundef %41)
  br label %42

42:                                               ; preds = %34, %13
  ret void
}