; Function Attrs: nounwind uwtable
define internal fastcc void @_pack_job_step_pids(ptr noundef readonly captures(address_is_null) %0, ptr noundef %1) unnamed_addr #0 {
  %.not = icmp eq ptr %0, null
  br i1 %.not, label %3, label %4

3:                                                ; preds = %2
  tail call void @packmem(ptr noundef null, i32 noundef 0, ptr noundef %1) #7
  tail call void @pack32(i32 noundef 0, ptr noundef %1) #7
  br label %15

4:                                                ; preds = %2
  %5 = load ptr, ptr %0, align 8
  %.not12 = icmp eq ptr %5, null
  br i1 %.not12, label %10, label %6

6:                                                ; preds = %4
  %7 = tail call i64 @strlen(ptr noundef nonnull dereferenceable(1) %5) #8
  %8 = trunc i64 %7 to i32
  %9 = add i32 %8, 1
  br label %10

10:                                               ; preds = %6, %4
  %.0 = phi i32 [ %9, %6 ], [ 0, %4 ]
  tail call void @packmem(ptr noundef %5, i32 noundef %.0, ptr noundef %1) #7
  %11 = getelementptr inbounds nuw i8, ptr %0, i64 8
  %12 = load ptr, ptr %11, align 8
  %13 = getelementptr inbounds nuw i8, ptr %0, i64 16
  %14 = load i32, ptr %13, align 8
  tail call void @pack32_array(ptr noundef %12, i32 noundef %14, ptr noundef %1) #7
  br label %15

15:                                               ; preds = %10, %3
  ret void
}